; Function Attrs: mustprogress uwtable
define hidden void @_ZNK7datalog17instruction_block18collect_statisticsER10statistics(ptr noundef nonnull readonly align 8 captures(none) dereferenceable(16) %0, ptr noundef nonnull align 8 dereferenceable(16) %1) local_unnamed_addr #3 align 2 {
  %3 = alloca %"struct.datalog::costs", align 4
  %4 = load ptr, ptr %0, align 8, !tbaa !381
  %5 = icmp eq ptr %4, null
  br i1 %5, label %._crit_edge, label %_ZNK6vectorIPN7datalog11instructionELb0EjE3endEv.exit

_ZNK6vectorIPN7datalog11instructionELb0EjE3endEv.exit: ; preds = %2
  %6 = getelementptr inbounds i8, ptr %4, i64 -4
  %7 = load i32, ptr %6, align 4, !tbaa !33
  %8 = zext i32 %7 to i64
  %9 = getelementptr inbounds nuw ptr, ptr %4, i64 %8
  %.not9 = icmp eq i32 %7, 0
  br i1 %.not9, label %._crit_edge, label %.lr.ph

.lr.ph:                                           ; preds = %_ZNK6vectorIPN7datalog11instructionELb0EjE3endEv.exit
  %10 = getelementptr inbounds nuw i8, ptr %3, i64 4
  br label %11

._crit_edge:                                      ; preds = %11, %2, %_ZNK6vectorIPN7datalog11instructionELb0EjE3endEv.exit
  ret void

11:                                               ; preds = %.lr.ph, %11
  %.010 = phi ptr [ %4, %.lr.ph ], [ %16, %11 ]
  %12 = load ptr, ptr %.010, align 8, !tbaa !384
  call void @llvm.lifetime.start.p0(i64 8, ptr nonnull %3) #25
  call void @_ZN7datalog5costsC1Ev(ptr noundef nonnull align 4 dereferenceable(8) %3)
  %13 = getelementptr inbounds nuw i8, ptr %12, i64 8
  call void @_ZNK7datalog16accounted_object14get_total_costERNS_5costsE(ptr noundef nonnull align 8 dereferenceable(33) %13, ptr noundef nonnull align 4 dereferenceable(8) %3)
  %14 = load i32, ptr %10, align 4, !tbaa !277
  call void @_ZN10statistics6updateEPKcj(ptr noundef nonnull align 8 dereferenceable(16) %1, ptr noundef nonnull @.str.17, i32 noundef %14)
  %15 = load i32, ptr %3, align 4, !tbaa !279
  call void @_ZN10statistics6updateEPKcj(ptr noundef nonnull align 8 dereferenceable(16) %1, ptr noundef nonnull @.str.18, i32 noundef %15)
  call void @llvm.lifetime.end.p0(i64 8, ptr nonnull %3) #25
  %16 = getelementptr inbounds nuw i8, ptr %.010, i64 8
  %.not = icmp eq ptr %16, %9
  br i1 %.not, label %._crit_edge, label %11
}